target datalayout = "e-m:e-p270:32:32-p271:32:32-p272:64:64-i64:64-i128:128-f80:128-n8:16:32:64-S128"
target triple = "x86_64-pc-linux-gnu"

%"class.icu_77::RelativeDateTimeCacheData" = type { %"class.icu_77::SharedObject", [3 x [15 x [6 x %"class.icu_77::UnicodeString"]]], [3 x [15 x [2 x [8 x ptr]]]], %"class.icu_77::UnicodeString", [3 x i32], ptr }
%"class.icu_77::SharedObject" = type { %"class.icu_77::UObject", i32, %"struct.std::atomic", ptr }
%"class.icu_77::UObject" = type { ptr }
%"struct.std::atomic" = type { %"struct.std::__atomic_base" }
%"struct.std::__atomic_base" = type { i32 }
%"class.icu_77::UnicodeString" = type { %"class.icu_77::Replaceable", %"union.icu_77::UnicodeString::StackBufferOrFields" }
%"class.icu_77::Replaceable" = type { %"class.icu_77::UObject" }
%"union.icu_77::UnicodeString::StackBufferOrFields" = type { %struct.anon.0, [32 x i8] }
%struct.anon.0 = type { i16, i32, i32, ptr }

; Function Attrs: mustprogress nounwind uwtable
define noundef ptr @_ZNK6icu_7725RelativeDateTimeCacheData32getRelativeDateTimeUnitFormatterEi21URelativeDateTimeUnitii(ptr noundef nonnull align 8 dereferenceable(23152) %0, i32 noundef %1, i32 noundef %2, i32 noundef %3, i32 noundef %4) #0 align 2 {
  %6 = alloca ptr, align 8
  %7 = alloca ptr, align 8
  %8 = alloca i32, align 4
  %9 = alloca i32, align 4
  %10 = alloca i32, align 4
  %11 = alloca i32, align 4
  %12 = alloca i32, align 4
  %13 = alloca i32, align 4
  store ptr %0, ptr %7, align 8, !tbaa !23
  store i32 %1, ptr %8, align 4, !tbaa !14
  store i32 %2, ptr %9, align 4, !tbaa !52
  store i32 %3, ptr %10, align 4, !tbaa !14
  store i32 %4, ptr %11, align 4, !tbaa !14
  %14 = load ptr, ptr %7, align 8
  br label %15

15:                                               ; preds = %5, %64
  call void @llvm.lifetime.start.p0(i64 4, ptr %12) #12
  %16 = load i32, ptr %8, align 4, !tbaa !14
  store i32 %16, ptr %12, align 4, !tbaa !14
  br label %17

17:                                               ; preds = %54, %15
  %18 = getelementptr inbounds nuw %"class.icu_77::RelativeDateTimeCacheData", ptr %14, i32 0, i32 2
  %19 = load i32, ptr %12, align 4, !tbaa !14
  %20 = sext i32 %19 to i64
  %21 = getelementptr inbounds [3 x [15 x [2 x [8 x ptr]]]], ptr %18, i64 0, i64 %20
  %22 = load i32, ptr %9, align 4, !tbaa !52
  %23 = zext i32 %22 to i64
  %24 = getelementptr inbounds nuw [15 x [2 x [8 x ptr]]], ptr %21, i64 0, i64 %23
  %25 = load i32, ptr %10, align 4, !tbaa !14
  %26 = sext i32 %25 to i64
  %27 = getelementptr inbounds [2 x [8 x ptr]], ptr %24, i64 0, i64 %26
  %28 = load i32, ptr %11, align 4, !tbaa !14
  %29 = sext i32 %28 to i64
  %30 = getelementptr inbounds [8 x ptr], ptr %27, i64 0, i64 %29
  %31 = load ptr, ptr %30, align 8, !tbaa !27
  %32 = icmp ne ptr %31, null
  br i1 %32, label %33, label %48

33:                                               ; preds = %17
  %34 = getelementptr inbounds nuw %"class.icu_77::RelativeDateTimeCacheData", ptr %14, i32 0, i32 2
  %35 = load i32, ptr %12, align 4, !tbaa !14
  %36 = sext i32 %35 to i64
  %37 = getelementptr inbounds [3 x [15 x [2 x [8 x ptr]]]], ptr %34, i64 0, i64 %36
  %38 = load i32, ptr %9, align 4, !tbaa !52
  %39 = zext i32 %38 to i64
  %40 = getelementptr inbounds nuw [15 x [2 x [8 x ptr]]], ptr %37, i64 0, i64 %39
  %41 = load i32, ptr %10, align 4, !tbaa !14
  %42 = sext i32 %41 to i64
  %43 = getelementptr inbounds [2 x [8 x ptr]], ptr %40, i64 0, i64 %42
  %44 = load i32, ptr %11, align 4, !tbaa !14
  %45 = sext i32 %44 to i64
  %46 = getelementptr inbounds [8 x ptr], ptr %43, i64 0, i64 %45
  %47 = load ptr, ptr %46, align 8, !tbaa !27
  store ptr %47, ptr %6, align 8
  store i32 1, ptr %13, align 4
  br label %62

48:                                               ; preds = %17
  %49 = getelementptr inbounds nuw %"class.icu_77::RelativeDateTimeCacheData", ptr %14, i32 0, i32 4
  %50 = load i32, ptr %12, align 4, !tbaa !14
  %51 = sext i32 %50 to i64
  %52 = getelementptr inbounds [3 x i32], ptr %49, i64 0, i64 %51
  %53 = load i32, ptr %52, align 4, !tbaa !14
  store i32 %53, ptr %12, align 4, !tbaa !14
  br label %54

54:                                               ; preds = %48
  %55 = load i32, ptr %12, align 4, !tbaa !14
  %56 = icmp ne i32 %55, -1
  br i1 %56, label %17, label %57, !llvm.loop !54

57:                                               ; preds = %54
  %58 = load i32, ptr %11, align 4, !tbaa !14
  %59 = icmp eq i32 %58, 5
  br i1 %59, label %60, label %61

60:                                               ; preds = %57
  store i32 3, ptr %13, align 4
  br label %62

61:                                               ; preds = %57
  store i32 5, ptr %11, align 4, !tbaa !14
  store i32 0, ptr %13, align 4
  br label %62

62:                                               ; preds = %61, %60, %33
  call void @llvm.lifetime.end.p0(i64 4, ptr %12) #12
  %63 = load i32, ptr %13, align 4
  switch i32 %63, label %68 [
    i32 0, label %64
    i32 1, label %66
    i32 3, label %65
  ]

64:                                               ; preds = %62
  br label %15, !llvm.loop !55

65:                                               ; preds = %62
  store ptr null, ptr %6, align 8
  br label %66

66:                                               ; preds = %65, %62
  %67 = load ptr, ptr %6, align 8
  ret ptr %67

68:                                               ; preds = %62
  unreachable
}