; Function Attrs: mustprogress nofree norecurse nosync nounwind willreturn memory(argmem: read) uwtable
define noundef ptr @_ZNK6icu_7725RelativeDateTimeCacheData32getRelativeDateTimeUnitFormatterEi21URelativeDateTimeUnitii(ptr noundef nonnull readonly align 8 captures(none) dereferenceable(23152) %0, i32 noundef %1, i32 noundef %2, i32 noundef %3, i32 noundef %4) local_unnamed_addr #11 align 2 {
  %6 = getelementptr inbounds nuw i8, ptr %0, i64 17304
  %7 = zext i32 %2 to i64
  %8 = sext i32 %3 to i64
  %9 = getelementptr inbounds nuw i8, ptr %0, i64 23128
  br label %10

10:                                               ; preds = %19, %5
  %.015 = phi i32 [ %4, %5 ], [ 5, %19 ]
  %11 = sext i32 %.015 to i64
  br label %12

12:                                               ; preds = %16, %10
  %.014 = phi i32 [ %1, %10 ], [ %18, %16 ]
  %13 = sext i32 %.014 to i64
  %14 = getelementptr inbounds [3 x [15 x [2 x [8 x ptr]]]], ptr %6, i64 0, i64 %13, i64 %7, i64 %8, i64 %11
  %15 = load ptr, ptr %14, align 8, !tbaa !30
  %.not = icmp eq ptr %15, null
  br i1 %.not, label %16, label %.thread

16:                                               ; preds = %12
  %17 = getelementptr inbounds [3 x i32], ptr %9, i64 0, i64 %13
  %18 = load i32, ptr %17, align 4, !tbaa !12
  %.not20 = icmp eq i32 %18, -1
  br i1 %.not20, label %19, label %12, !llvm.loop !34

19:                                               ; preds = %16
  %20 = icmp eq i32 %.015, 5
  br i1 %20, label %.thread, label %10

.thread:                                          ; preds = %19, %12
  ret ptr %15
}